target datalayout = "e-m:e-p270:32:32-p271:32:32-p272:64:64-i64:64-i128:128-f80:128-n8:16:32:64-S128"
target triple = "x86_64-pc-linux-gnu"

%"class.arrow::internal::FileDescriptor" = type { %"struct.std::atomic" }
%"struct.std::atomic" = type { %"struct.std::__atomic_base" }
%"struct.std::__atomic_base" = type { i32 }

; Function Attrs: alwaysinline mustprogress nounwind uwtable
define linkonce_odr noundef i32 @_ZNSt13__atomic_baseIiE8exchangeEiSt12memory_order(ptr noundef nonnull align 4 dereferenceable(4) %0, i32 noundef %1, i32 noundef %2) #15 comdat align 2 {
  %4 = alloca ptr, align 8
  %5 = alloca i32, align 4
  %6 = alloca i32, align 4
  %7 = alloca i32, align 4
  %8 = alloca i32, align 4
  store ptr %0, ptr %4, align 8, !tbaa !115
  store i32 %1, ptr %5, align 4, !tbaa !3
  store i32 %2, ptr %6, align 4, !tbaa !117
  %9 = load ptr, ptr %4, align 8
  %10 = getelementptr inbounds nuw %"struct.std::__atomic_base", ptr %9, i32 0, i32 0
  %11 = load i32, ptr %6, align 4, !tbaa !117
  %12 = load i32, ptr %5, align 4, !tbaa !3
  store i32 %12, ptr %7, align 4, !tbaa !3
  switch i32 %11, label %13 [
    i32 1, label %16
    i32 2, label %16
    i32 3, label %19
    i32 4, label %22
    i32 5, label %25
  ]

13:                                               ; preds = %3
  %14 = load i32, ptr %7, align 4
  %15 = atomicrmw xchg ptr %10, i32 %14 monotonic, align 4
  store i32 %15, ptr %8, align 4
  br label %28

16:                                               ; preds = %3, %3
  %17 = load i32, ptr %7, align 4
  %18 = atomicrmw xchg ptr %10, i32 %17 acquire, align 4
  store i32 %18, ptr %8, align 4
  br label %28

19:                                               ; preds = %3
  %20 = load i32, ptr %7, align 4
  %21 = atomicrmw xchg ptr %10, i32 %20 release, align 4
  store i32 %21, ptr %8, align 4
  br label %28

22:                                               ; preds = %3
  %23 = load i32, ptr %7, align 4
  %24 = atomicrmw xchg ptr %10, i32 %23 acq_rel, align 4
  store i32 %24, ptr %8, align 4
  br label %28

25:                                               ; preds = %3
  %26 = load i32, ptr %7, align 4
  %27 = atomicrmw xchg ptr %10, i32 %26 seq_cst, align 4
  store i32 %27, ptr %8, align 4
  br label %28

28:                                               ; preds = %25, %22, %19, %16, %13
  %29 = load i32, ptr %8, align 4, !tbaa !3
  ret i32 %29
}

; Function Attrs: mustprogress uwtable
define noundef nonnull align 4 dereferenceable(4) ptr @_ZN5arrow8internal14FileDescriptoraSEOS1_(ptr noundef nonnull align 4 dereferenceable(4) %0, ptr noundef nonnull align 4 dereferenceable(4) %1) #4 align 2 {
  %3 = alloca ptr, align 8
  %4 = alloca ptr, align 8
  %5 = alloca i32, align 4
  store ptr %0, ptr %3, align 8, !tbaa !113
  store ptr %1, ptr %4, align 8, !tbaa !113
  %6 = load ptr, ptr %3, align 8
  call void @llvm.lifetime.start.p0(i64 4, ptr %5) #3
  %7 = getelementptr inbounds nuw %"class.arrow::internal::FileDescriptor", ptr %6, i32 0, i32 0
  %8 = load ptr, ptr %4, align 8, !tbaa !113
  %9 = getelementptr inbounds nuw %"class.arrow::internal::FileDescriptor", ptr %8, i32 0, i32 0
  %10 = call noundef i32 @_ZNSt13__atomic_baseIiE8exchangeEiSt12memory_order(ptr noundef nonnull align 4 dereferenceable(4) %9, i32 noundef -1, i32 noundef 5) #3
  %11 = call noundef i32 @_ZNSt13__atomic_baseIiE8exchangeEiSt12memory_order(ptr noundef nonnull align 4 dereferenceable(4) %7, i32 noundef %10, i32 noundef 5) #3
  store i32 %11, ptr %5, align 4, !tbaa !3
  %12 = load i32, ptr %5, align 4, !tbaa !3
  %13 = icmp ne i32 %12, -1
  br i1 %13, label %14, label %16

14:                                               ; preds = %2
  %15 = load i32, ptr %5, align 4, !tbaa !3
  call void @_ZN5arrow8internal14FileDescriptor19CloseFromDestructorEi(i32 noundef %15)
  br label %16

16:                                               ; preds = %14, %2
  call void @llvm.lifetime.end.p0(i64 4, ptr %5) #3
  ret ptr %6
}