; Function Attrs: mustprogress uwtable
define noundef nonnull align 4 dereferenceable(4) ptr @_ZN5arrow8internal14FileDescriptoraSEOS1_(ptr noundef nonnull returned align 4 captures(ret: address, provenance) dereferenceable(4) %0, ptr noundef nonnull align 4 captures(none) dereferenceable(4) %1) local_unnamed_addr #3 align 2 {
  %3 = atomicrmw xchg ptr %1, i32 -1 seq_cst, align 4
  %4 = atomicrmw xchg ptr %0, i32 %3 seq_cst, align 4
  %.not = icmp eq i32 %4, -1
  br i1 %.not, label %6, label %5

5:                                                ; preds = %2
  tail call void @_ZN5arrow8internal14FileDescriptor19CloseFromDestructorEi(i32 noundef %4)
  br label %6

6:                                                ; preds = %5, %2
  ret ptr %0
}